target datalayout = "e-m:e-p270:32:32-p271:32:32-p272:64:64-i64:64-i128:128-f80:128-n8:16:32:64-S128"
target triple = "x86_64-pc-linux-gnu"

%"class.cv::Size_" = type { i32, i32 }
%"class.cv::Mat" = type { i32, i32, i32, i32, ptr, ptr, ptr, ptr, ptr, ptr, %"struct.cv::MatSize", %"struct.cv::MatStep" }
%"struct.cv::MatSize" = type { ptr }
%"struct.cv::MatStep" = type { ptr, [2 x i64] }

; Function Attrs: inlinehint mustprogress nounwind uwtable
define linkonce_odr hidden void @_ZN2cv5Size_IiEC2Eii(ptr noundef nonnull align 4 dereferenceable(8) %0, i32 noundef %1, i32 noundef %2) unnamed_addr #10 comdat align 2 {
  %4 = alloca ptr, align 8
  %5 = alloca i32, align 4
  %6 = alloca i32, align 4
  store ptr %0, ptr %4, align 8, !tbaa !54
  store i32 %1, ptr %5, align 4, !tbaa !74
  store i32 %2, ptr %6, align 4, !tbaa !74
  %7 = load ptr, ptr %4, align 8
  %8 = getelementptr inbounds nuw %"class.cv::Size_", ptr %7, i32 0, i32 0
  %9 = load i32, ptr %5, align 4, !tbaa !74
  store i32 %9, ptr %8, align 4, !tbaa !56
  %10 = getelementptr inbounds nuw %"class.cv::Size_", ptr %7, i32 0, i32 1
  %11 = load i32, ptr %6, align 4, !tbaa !74
  store i32 %11, ptr %10, align 4, !tbaa !57
  ret void
}

; Function Attrs: inlinehint mustprogress nounwind uwtable
define linkonce_odr hidden noundef ptr @_ZN2cv3Mat3ptrIfEEPT_i(ptr noundef nonnull align 8 dereferenceable(96) %0, i32 noundef %1) #10 comdat align 2 {
  %3 = alloca ptr, align 8
  %4 = alloca i32, align 4
  store ptr %0, ptr %3, align 8, !tbaa !96
  store i32 %1, ptr %4, align 4, !tbaa !74
  %5 = load ptr, ptr %3, align 8
  %6 = getelementptr inbounds nuw %"class.cv::Mat", ptr %5, i32 0, i32 4
  %7 = load ptr, ptr %6, align 8, !tbaa !111
  %8 = getelementptr inbounds nuw %"class.cv::Mat", ptr %5, i32 0, i32 11
  %9 = getelementptr inbounds nuw %"struct.cv::MatStep", ptr %8, i32 0, i32 0
  %10 = load ptr, ptr %9, align 8, !tbaa !112
  %11 = getelementptr inbounds i64, ptr %10, i64 0
  %12 = load i64, ptr %11, align 8, !tbaa !80
  %13 = load i32, ptr %4, align 4, !tbaa !74
  %14 = sext i32 %13 to i64
  %15 = mul i64 %12, %14
  %16 = getelementptr inbounds nuw i8, ptr %7, i64 %15
  ret ptr %16
}

; Function Attrs: inlinehint mustprogress nounwind uwtable
define linkonce_odr hidden noundef ptr @_ZNK2cv4Mat_IfEixEi(ptr noundef nonnull align 8 dereferenceable(96) %0, i32 noundef %1) #10 comdat align 2 {
  %3 = alloca ptr, align 8
  %4 = alloca i32, align 4
  store ptr %0, ptr %3, align 8, !tbaa !60
  store i32 %1, ptr %4, align 4, !tbaa !74
  %5 = load ptr, ptr %3, align 8
  %6 = getelementptr inbounds nuw %"class.cv::Mat", ptr %5, i32 0, i32 4
  %7 = load ptr, ptr %6, align 8, !tbaa !111
  %8 = load i32, ptr %4, align 4, !tbaa !74
  %9 = sext i32 %8 to i64
  %10 = getelementptr inbounds nuw %"class.cv::Mat", ptr %5, i32 0, i32 11
  %11 = getelementptr inbounds nuw %"struct.cv::MatStep", ptr %10, i32 0, i32 0
  %12 = load ptr, ptr %11, align 8, !tbaa !112
  %13 = getelementptr inbounds i64, ptr %12, i64 0
  %14 = load i64, ptr %13, align 8, !tbaa !80
  %15 = mul i64 %9, %14
  %16 = getelementptr inbounds nuw i8, ptr %7, i64 %15
  ret ptr %16
}

; Function Attrs: inlinehint mustprogress uwtable
define linkonce_odr hidden i64 @_ZNK2cv7MatSizeclEv(ptr noundef nonnull align 8 dereferenceable(8) %0) #7 comdat align 2 {
  %2 = alloca %"class.cv::Size_", align 4
  %3 = alloca ptr, align 8
  store ptr %0, ptr %3, align 8, !tbaa !156
  %4 = load ptr, ptr %3, align 8
  %5 = getelementptr inbounds nuw %"struct.cv::MatSize", ptr %4, i32 0, i32 0
  %6 = load ptr, ptr %5, align 8, !tbaa !158
  %7 = getelementptr inbounds i32, ptr %6, i64 1
  %8 = load i32, ptr %7, align 4, !tbaa !74
  %9 = getelementptr inbounds nuw %"struct.cv::MatSize", ptr %4, i32 0, i32 0
  %10 = load ptr, ptr %9, align 8, !tbaa !158
  %11 = getelementptr inbounds i32, ptr %10, i64 0
  %12 = load i32, ptr %11, align 4, !tbaa !74
  call void @_ZN2cv5Size_IiEC2Eii(ptr noundef nonnull align 4 dereferenceable(8) %2, i32 noundef %8, i32 noundef %12)
  %13 = load i64, ptr %2, align 4
  ret i64 %13
}

; Function Attrs: inlinehint mustprogress nounwind uwtable
define linkonce_odr noundef float @_ZSt3expf(float noundef %0) #10 comdat {
  %2 = alloca float, align 4
  store float %0, ptr %2, align 4, !tbaa !79
  %3 = load float, ptr %2, align 4, !tbaa !79
  %4 = call float @expf(float noundef %3) #3, !tbaa !74
  ret float %4
}

; Function Attrs: inlinehint mustprogress nounwind uwtable
define linkonce_odr noundef float @_ZSt4sqrtf(float noundef %0) #10 comdat {
  %2 = alloca float, align 4
  store float %0, ptr %2, align 4, !tbaa !79
  %3 = load float, ptr %2, align 4, !tbaa !79
  %4 = call float @sqrtf(float noundef %3) #3, !tbaa !74
  ret float %4
}

; Function Attrs: mustprogress uwtable
define internal void @_ZN12_GLOBAL__N_123AdaptiveManifoldFilterN8h_filterERKN2cv4Mat_IfEERNS1_3MatEf(ptr noundef nonnull align 8 dereferenceable(96) %0, ptr noundef nonnull align 8 dereferenceable(96) %1, float noundef %2) #4 align 2 {
  %4 = alloca ptr, align 8
  %5 = alloca ptr, align 8
  %6 = alloca float, align 4
  %7 = alloca float, align 4
  %8 = alloca %"class.cv::Size_", align 4
  %9 = alloca i32, align 4
  %10 = alloca i32, align 4
  %11 = alloca ptr, align 8
  %12 = alloca ptr, align 8
  %13 = alloca i32, align 4
  %14 = alloca i32, align 4
  %15 = alloca i32, align 4
  %16 = alloca ptr, align 8
  %17 = alloca ptr, align 8
  %18 = alloca i32, align 4
  %19 = alloca ptr, align 8
  %20 = alloca ptr, align 8
  store ptr %0, ptr %4, align 8, !tbaa !60
  store ptr %1, ptr %5, align 8, !tbaa !96
  store float %2, ptr %6, align 4, !tbaa !79
  call void @llvm.lifetime.start.p0(i64 4, ptr %7) #3
  %21 = call noundef float @_ZSt4sqrtf(float noundef 2.000000e+00)
  %22 = fneg float %21
  %23 = load float, ptr %6, align 4, !tbaa !79
  %24 = fdiv float %22, %23
  %25 = call noundef float @_ZSt3expf(float noundef %24)
  store float %25, ptr %7, align 4, !tbaa !79
  %26 = load ptr, ptr %5, align 8, !tbaa !96
  %27 = load ptr, ptr %4, align 8, !tbaa !60
  %28 = getelementptr inbounds nuw %"class.cv::Mat", ptr %27, i32 0, i32 10
  %29 = call i64 @_ZNK2cv7MatSizeclEv(ptr noundef nonnull align 8 dereferenceable(8) %28)
  store i64 %29, ptr %8, align 4
  %30 = load i64, ptr %8, align 4
  call void @_ZN2cv3Mat6createENS_5Size_IiEEi(ptr noundef nonnull align 8 dereferenceable(96) %26, i64 %30, i32 noundef 5)
  call void @llvm.lifetime.start.p0(i64 4, ptr %9) #3
  store i32 0, ptr %9, align 4, !tbaa !74
  br label %31

31:                                               ; preds = %121, %3
  %32 = load i32, ptr %9, align 4, !tbaa !74
  %33 = load ptr, ptr %4, align 8, !tbaa !60
  %34 = getelementptr inbounds nuw %"class.cv::Mat", ptr %33, i32 0, i32 2
  %35 = load i32, ptr %34, align 8, !tbaa !115
  %36 = icmp slt i32 %32, %35
  br i1 %36, label %38, label %37

37:                                               ; preds = %31
  store i32 2, ptr %10, align 4
  call void @llvm.lifetime.end.p0(i64 4, ptr %9) #3
  br label %124

38:                                               ; preds = %31
  call void @llvm.lifetime.start.p0(i64 8, ptr %11) #3
  %39 = load ptr, ptr %4, align 8, !tbaa !60
  %40 = load i32, ptr %9, align 4, !tbaa !74
  %41 = call noundef ptr @_ZNK2cv4Mat_IfEixEi(ptr noundef nonnull align 8 dereferenceable(96) %39, i32 noundef %40)
  store ptr %41, ptr %11, align 8, !tbaa !116
  call void @llvm.lifetime.start.p0(i64 8, ptr %12) #3
  %42 = load ptr, ptr %5, align 8, !tbaa !96
  %43 = load i32, ptr %9, align 4, !tbaa !74
  %44 = call noundef ptr @_ZN2cv3Mat3ptrIfEEPT_i(ptr noundef nonnull align 8 dereferenceable(96) %42, i32 noundef %43)
  store ptr %44, ptr %12, align 8, !tbaa !116
  %45 = load ptr, ptr %11, align 8, !tbaa !116
  %46 = getelementptr inbounds float, ptr %45, i64 0
  %47 = load float, ptr %46, align 4, !tbaa !79
  %48 = load ptr, ptr %12, align 8, !tbaa !116
  %49 = getelementptr inbounds float, ptr %48, i64 0
  store float %47, ptr %49, align 4, !tbaa !79
  call void @llvm.lifetime.start.p0(i64 4, ptr %13) #3
  store i32 1, ptr %13, align 4, !tbaa !74
  br label %50

50:                                               ; preds = %81, %38
  %51 = load i32, ptr %13, align 4, !tbaa !74
  %52 = load ptr, ptr %4, align 8, !tbaa !60
  %53 = getelementptr inbounds nuw %"class.cv::Mat", ptr %52, i32 0, i32 3
  %54 = load i32, ptr %53, align 4, !tbaa !118
  %55 = icmp slt i32 %51, %54
  br i1 %55, label %57, label %56

56:                                               ; preds = %50
  store i32 5, ptr %10, align 4
  call void @llvm.lifetime.end.p0(i64 4, ptr %13) #3
  br label %84

57:                                               ; preds = %50
  %58 = load ptr, ptr %11, align 8, !tbaa !116
  %59 = load i32, ptr %13, align 4, !tbaa !74
  %60 = sext i32 %59 to i64
  %61 = getelementptr inbounds float, ptr %58, i64 %60
  %62 = load float, ptr %61, align 4, !tbaa !79
  %63 = load float, ptr %7, align 4, !tbaa !79
  %64 = load ptr, ptr %12, align 8, !tbaa !116
  %65 = load i32, ptr %13, align 4, !tbaa !74
  %66 = sub nsw i32 %65, 1
  %67 = sext i32 %66 to i64
  %68 = getelementptr inbounds float, ptr %64, i64 %67
  %69 = load float, ptr %68, align 4, !tbaa !79
  %70 = load ptr, ptr %11, align 8, !tbaa !116
  %71 = load i32, ptr %13, align 4, !tbaa !74
  %72 = sext i32 %71 to i64
  %73 = getelementptr inbounds float, ptr %70, i64 %72
  %74 = load float, ptr %73, align 4, !tbaa !79
  %75 = fsub float %69, %74
  %76 = call float @llvm.fmuladd.f32(float %63, float %75, float %62)
  %77 = load ptr, ptr %12, align 8, !tbaa !116
  %78 = load i32, ptr %13, align 4, !tbaa !74
  %79 = sext i32 %78 to i64
  %80 = getelementptr inbounds float, ptr %77, i64 %79
  store float %76, ptr %80, align 4, !tbaa !79
  br label %81

81:                                               ; preds = %57
  %82 = load i32, ptr %13, align 4, !tbaa !74
  %83 = add nsw i32 %82, 1
  store i32 %83, ptr %13, align 4, !tbaa !74
  br label %50, !llvm.loop !119

84:                                               ; preds = %56
  call void @llvm.lifetime.start.p0(i64 4, ptr %14) #3
  %85 = load ptr, ptr %4, align 8, !tbaa !60
  %86 = getelementptr inbounds nuw %"class.cv::Mat", ptr %85, i32 0, i32 3
  %87 = load i32, ptr %86, align 4, !tbaa !118
  %88 = sub nsw i32 %87, 2
  store i32 %88, ptr %14, align 4, !tbaa !74
  br label %89

89:                                               ; preds = %117, %84
  %90 = load i32, ptr %14, align 4, !tbaa !74
  %91 = icmp sge i32 %90, 0
  br i1 %91, label %93, label %92

92:                                               ; preds = %89
  store i32 8, ptr %10, align 4
  call void @llvm.lifetime.end.p0(i64 4, ptr %14) #3
  br label %120

93:                                               ; preds = %89
  %94 = load ptr, ptr %12, align 8, !tbaa !116
  %95 = load i32, ptr %14, align 4, !tbaa !74
  %96 = sext i32 %95 to i64
  %97 = getelementptr inbounds float, ptr %94, i64 %96
  %98 = load float, ptr %97, align 4, !tbaa !79
  %99 = load float, ptr %7, align 4, !tbaa !79
  %100 = load ptr, ptr %12, align 8, !tbaa !116
  %101 = load i32, ptr %14, align 4, !tbaa !74
  %102 = add nsw i32 %101, 1
  %103 = sext i32 %102 to i64
  %104 = getelementptr inbounds float, ptr %100, i64 %103
  %105 = load float, ptr %104, align 4, !tbaa !79
  %106 = load ptr, ptr %12, align 8, !tbaa !116
  %107 = load i32, ptr %14, align 4, !tbaa !74
  %108 = sext i32 %107 to i64
  %109 = getelementptr inbounds float, ptr %106, i64 %108
  %110 = load float, ptr %109, align 4, !tbaa !79
  %111 = fsub float %105, %110
  %112 = call float @llvm.fmuladd.f32(float %99, float %111, float %98)
  %113 = load ptr, ptr %12, align 8, !tbaa !116
  %114 = load i32, ptr %14, align 4, !tbaa !74
  %115 = sext i32 %114 to i64
  %116 = getelementptr inbounds float, ptr %113, i64 %115
  store float %112, ptr %116, align 4, !tbaa !79
  br label %117

117:                                              ; preds = %93
  %118 = load i32, ptr %14, align 4, !tbaa !74
  %119 = add nsw i32 %118, -1
  store i32 %119, ptr %14, align 4, !tbaa !74
  br label %89, !llvm.loop !120

120:                                              ; preds = %92
  call void @llvm.lifetime.end.p0(i64 8, ptr %12) #3
  call void @llvm.lifetime.end.p0(i64 8, ptr %11) #3
  br label %121

121:                                              ; preds = %120
  %122 = load i32, ptr %9, align 4, !tbaa !74
  %123 = add nsw i32 %122, 1
  store i32 %123, ptr %9, align 4, !tbaa !74
  br label %31, !llvm.loop !121

124:                                              ; preds = %37
  call void @llvm.lifetime.start.p0(i64 4, ptr %15) #3
  store i32 1, ptr %15, align 4, !tbaa !74
  br label %125

125:                                              ; preds = %146, %124
  %126 = load i32, ptr %15, align 4, !tbaa !74
  %127 = load ptr, ptr %4, align 8, !tbaa !60
  %128 = getelementptr inbounds nuw %"class.cv::Mat", ptr %127, i32 0, i32 2
  %129 = load i32, ptr %128, align 8, !tbaa !115
  %130 = icmp slt i32 %126, %129
  br i1 %130, label %132, label %131

131:                                              ; preds = %125
  store i32 11, ptr %10, align 4
  call void @llvm.lifetime.end.p0(i64 4, ptr %15) #3
  br label %149

132:                                              ; preds = %125
  call void @llvm.lifetime.start.p0(i64 8, ptr %16) #3
  %133 = load ptr, ptr %5, align 8, !tbaa !96
  %134 = load i32, ptr %15, align 4, !tbaa !74
  %135 = call noundef ptr @_ZN2cv3Mat3ptrIfEEPT_i(ptr noundef nonnull align 8 dereferenceable(96) %133, i32 noundef %134)
  store ptr %135, ptr %16, align 8, !tbaa !116
  call void @llvm.lifetime.start.p0(i64 8, ptr %17) #3
  %136 = load ptr, ptr %5, align 8, !tbaa !96
  %137 = load i32, ptr %15, align 4, !tbaa !74
  %138 = sub nsw i32 %137, 1
  %139 = call noundef ptr @_ZN2cv3Mat3ptrIfEEPT_i(ptr noundef nonnull align 8 dereferenceable(96) %136, i32 noundef %138)
  store ptr %139, ptr %17, align 8, !tbaa !116
  %140 = load ptr, ptr %16, align 8, !tbaa !116
  %141 = load ptr, ptr %17, align 8, !tbaa !116
  %142 = load float, ptr %7, align 4, !tbaa !79
  %143 = load ptr, ptr %4, align 8, !tbaa !60
  %144 = getelementptr inbounds nuw %"class.cv::Mat", ptr %143, i32 0, i32 3
  %145 = load i32, ptr %144, align 4, !tbaa !118
  call void @_ZN2cv8ximgproc10intrinsics16rf_vert_row_passEPfS2_fi(ptr noundef %140, ptr noundef %141, float noundef %142, i32 noundef %145)
  call void @llvm.lifetime.end.p0(i64 8, ptr %17) #3
  call void @llvm.lifetime.end.p0(i64 8, ptr %16) #3
  br label %146

146:                                              ; preds = %132
  %147 = load i32, ptr %15, align 4, !tbaa !74
  %148 = add nsw i32 %147, 1
  store i32 %148, ptr %15, align 4, !tbaa !74
  br label %125, !llvm.loop !122

149:                                              ; preds = %131
  call void @llvm.lifetime.start.p0(i64 4, ptr %18) #3
  %150 = load ptr, ptr %4, align 8, !tbaa !60
  %151 = getelementptr inbounds nuw %"class.cv::Mat", ptr %150, i32 0, i32 2
  %152 = load i32, ptr %151, align 8, !tbaa !115
  %153 = sub nsw i32 %152, 2
  store i32 %153, ptr %18, align 4, !tbaa !74
  br label %154

154:                                              ; preds = %172, %149
  %155 = load i32, ptr %18, align 4, !tbaa !74
  %156 = icmp sge i32 %155, 0
  br i1 %156, label %158, label %157

157:                                              ; preds = %154
  store i32 14, ptr %10, align 4
  call void @llvm.lifetime.end.p0(i64 4, ptr %18) #3
  br label %175

158:                                              ; preds = %154
  call void @llvm.lifetime.start.p0(i64 8, ptr %19) #3
  %159 = load ptr, ptr %5, align 8, !tbaa !96
  %160 = load i32, ptr %18, align 4, !tbaa !74
  %161 = call noundef ptr @_ZN2cv3Mat3ptrIfEEPT_i(ptr noundef nonnull align 8 dereferenceable(96) %159, i32 noundef %160)
  store ptr %161, ptr %19, align 8, !tbaa !116
  call void @llvm.lifetime.start.p0(i64 8, ptr %20) #3
  %162 = load ptr, ptr %5, align 8, !tbaa !96
  %163 = load i32, ptr %18, align 4, !tbaa !74
  %164 = add nsw i32 %163, 1
  %165 = call noundef ptr @_ZN2cv3Mat3ptrIfEEPT_i(ptr noundef nonnull align 8 dereferenceable(96) %162, i32 noundef %164)
  store ptr %165, ptr %20, align 8, !tbaa !116
  %166 = load ptr, ptr %19, align 8, !tbaa !116
  %167 = load ptr, ptr %20, align 8, !tbaa !116
  %168 = load float, ptr %7, align 4, !tbaa !79
  %169 = load ptr, ptr %4, align 8, !tbaa !60
  %170 = getelementptr inbounds nuw %"class.cv::Mat", ptr %169, i32 0, i32 3
  %171 = load i32, ptr %170, align 4, !tbaa !118
  call void @_ZN2cv8ximgproc10intrinsics16rf_vert_row_passEPfS2_fi(ptr noundef %166, ptr noundef %167, float noundef %168, i32 noundef %171)
  call void @llvm.lifetime.end.p0(i64 8, ptr %20) #3
  call void @llvm.lifetime.end.p0(i64 8, ptr %19) #3
  br label %172

172:                                              ; preds = %158
  %173 = load i32, ptr %18, align 4, !tbaa !74
  %174 = add nsw i32 %173, -1
  store i32 %174, ptr %18, align 4, !tbaa !74
  br label %154, !llvm.loop !123

175:                                              ; preds = %157
  call void @llvm.lifetime.end.p0(i64 4, ptr %7) #3
  ret void
}