; Function Attrs: mustprogress uwtable
define internal fastcc void @_ZN12_GLOBAL__N_123AdaptiveManifoldFilterN8h_filterERKN2cv4Mat_IfEERNS1_3MatEf(ptr noundef nonnull readonly align 8 captures(none) dereferenceable(96) %0, ptr noundef nonnull align 8 dereferenceable(96) %1, float noundef %2) unnamed_addr #3 align 2 {
  %4 = fdiv float 0xBFF6A09E60000000, %2
  %5 = tail call noundef float @expf(float noundef %4) #27, !tbaa !53
  %6 = getelementptr inbounds nuw i8, ptr %0, i64 64
  %7 = load ptr, ptr %6, align 8, !tbaa !79
  %8 = getelementptr inbounds nuw i8, ptr %7, i64 4
  %9 = load i32, ptr %8, align 4, !tbaa !53
  %10 = load i32, ptr %7, align 4, !tbaa !53
  %.sroa.2.0.insert.ext.i = zext i32 %10 to i64
  %.sroa.2.0.insert.shift.i = shl nuw i64 %.sroa.2.0.insert.ext.i, 32
  %.sroa.0.0.insert.ext.i = zext i32 %9 to i64
  %.sroa.0.0.insert.insert.i = or disjoint i64 %.sroa.2.0.insert.shift.i, %.sroa.0.0.insert.ext.i
  tail call void @_ZN2cv3Mat6createENS_5Size_IiEEi(ptr noundef nonnull align 8 dereferenceable(96) %1, i64 %.sroa.0.0.insert.insert.i, i32 noundef 5)
  %11 = getelementptr inbounds nuw i8, ptr %0, i64 8
  %12 = load i32, ptr %11, align 8, !tbaa !104
  %13 = icmp sgt i32 %12, 0
  br i1 %13, label %.lr.ph72, label %._crit_edge81

.lr.ph72:                                         ; preds = %3
  %14 = getelementptr inbounds nuw i8, ptr %0, i64 16
  %15 = load ptr, ptr %14, align 8, !tbaa !93
  %16 = getelementptr inbounds nuw i8, ptr %0, i64 72
  %17 = load ptr, ptr %16, align 8, !tbaa !94
  %18 = load i64, ptr %17, align 8, !tbaa !95
  %19 = getelementptr inbounds nuw i8, ptr %1, i64 16
  %20 = load ptr, ptr %19, align 8, !tbaa !93
  %21 = getelementptr inbounds nuw i8, ptr %1, i64 72
  %22 = load ptr, ptr %21, align 8, !tbaa !94
  %23 = load i64, ptr %22, align 8, !tbaa !95
  %24 = getelementptr inbounds nuw i8, ptr %0, i64 12
  %25 = load i32, ptr %24, align 4, !tbaa !105
  %26 = icmp sgt i32 %25, 1
  br i1 %26, label %.lr.ph.us.us.preheader, label %.lr.ph72.split.split.preheader

.lr.ph.us.us.preheader:                           ; preds = %.lr.ph72
  %27 = add nsw i32 %25, -2
  %28 = zext i32 %27 to i64
  %wide.trip.count116 = zext nneg i32 %12 to i64
  %wide.trip.count108 = zext nneg i32 %25 to i64
  %29 = shl nuw nsw i64 %28, 2
  %30 = getelementptr i8, ptr %20, i64 %29
  %31 = getelementptr i8, ptr %30, i64 4
  br label %.lr.ph.us.us

.lr.ph.us.us:                                     ; preds = %.lr.ph.us.us.preheader, %._crit_edge69.us.us
  %indvars.iv113 = phi i64 [ 0, %.lr.ph.us.us.preheader ], [ %indvars.iv.next114, %._crit_edge69.us.us ]
  %32 = mul i64 %23, %indvars.iv113
  %scevgep128 = getelementptr i8, ptr %31, i64 %32
  %33 = mul i64 %23, %indvars.iv113
  %scevgep = getelementptr i8, ptr %20, i64 %33
  %34 = mul i64 %18, %indvars.iv113
  %35 = getelementptr inbounds nuw i8, ptr %15, i64 %34
  %36 = mul i64 %23, %indvars.iv113
  %37 = getelementptr inbounds nuw i8, ptr %20, i64 %36
  %38 = load float, ptr %35, align 4, !tbaa !96
  store float %38, ptr %37, align 4, !tbaa !96
  %load_initial = load float, ptr %scevgep, align 4
  br label %44

._crit_edge.us.us:                                ; preds = %._crit_edge.us.us.preheader, %._crit_edge.us.us
  %store_forwarded130 = phi float [ %load_initial129, %._crit_edge.us.us.preheader ], [ %42, %._crit_edge.us.us ]
  %indvars.iv110 = phi i64 [ %28, %._crit_edge.us.us.preheader ], [ %indvars.iv.next111, %._crit_edge.us.us ]
  %39 = getelementptr inbounds nuw float, ptr %37, i64 %indvars.iv110
  %40 = load float, ptr %39, align 4, !tbaa !96
  %41 = fsub float %store_forwarded130, %40
  %42 = tail call float @llvm.fmuladd.f32(float %5, float %41, float %40)
  store float %42, ptr %39, align 4, !tbaa !96
  %indvars.iv.next111 = add nsw i64 %indvars.iv110, -1
  %43 = icmp sgt i64 %indvars.iv110, 0
  br i1 %43, label %._crit_edge.us.us, label %._crit_edge69.us.us, !llvm.loop !106

44:                                               ; preds = %44, %.lr.ph.us.us
  %store_forwarded = phi float [ %load_initial, %.lr.ph.us.us ], [ %49, %44 ]
  %indvars.iv105 = phi i64 [ 1, %.lr.ph.us.us ], [ %indvars.iv.next106, %44 ]
  %45 = getelementptr inbounds nuw float, ptr %35, i64 %indvars.iv105
  %46 = load float, ptr %45, align 4, !tbaa !96
  %47 = getelementptr float, ptr %37, i64 %indvars.iv105
  %48 = fsub float %store_forwarded, %46
  %49 = tail call float @llvm.fmuladd.f32(float %5, float %48, float %46)
  store float %49, ptr %47, align 4, !tbaa !96
  %indvars.iv.next106 = add nuw nsw i64 %indvars.iv105, 1
  %exitcond109.not = icmp eq i64 %indvars.iv.next106, %wide.trip.count108
  br i1 %exitcond109.not, label %._crit_edge.us.us.preheader, label %44, !llvm.loop !107

._crit_edge.us.us.preheader:                      ; preds = %44
  %load_initial129 = load float, ptr %scevgep128, align 4
  br label %._crit_edge.us.us

._crit_edge69.us.us:                              ; preds = %._crit_edge.us.us
  %indvars.iv.next114 = add nuw nsw i64 %indvars.iv113, 1
  %exitcond117.not = icmp eq i64 %indvars.iv.next114, %wide.trip.count116
  br i1 %exitcond117.not, label %.preheader, label %.lr.ph.us.us, !llvm.loop !108

.lr.ph72.split.split.preheader:                   ; preds = %.lr.ph72
  %wide.trip.count = zext nneg i32 %12 to i64
  br label %.lr.ph72.split.split

.preheader:                                       ; preds = %.lr.ph72.split.split, %._crit_edge69.us.us
  %.not = icmp eq i32 %12, 1
  br i1 %.not, label %._crit_edge81, label %.lr.ph

.lr.ph:                                           ; preds = %.preheader
  %50 = getelementptr inbounds nuw i8, ptr %1, i64 16
  %51 = getelementptr inbounds nuw i8, ptr %1, i64 72
  %52 = getelementptr inbounds nuw i8, ptr %0, i64 12
  br label %64

.lr.ph72.split.split:                             ; preds = %.lr.ph72.split.split.preheader, %.lr.ph72.split.split
  %indvars.iv = phi i64 [ 0, %.lr.ph72.split.split.preheader ], [ %indvars.iv.next, %.lr.ph72.split.split ]
  %53 = mul i64 %18, %indvars.iv
  %54 = getelementptr inbounds nuw i8, ptr %15, i64 %53
  %55 = mul i64 %23, %indvars.iv
  %56 = getelementptr inbounds nuw i8, ptr %20, i64 %55
  %57 = load float, ptr %54, align 4, !tbaa !96
  store float %57, ptr %56, align 4, !tbaa !96
  %indvars.iv.next = add nuw nsw i64 %indvars.iv, 1
  %exitcond.not = icmp eq i64 %indvars.iv.next, %wide.trip.count
  br i1 %exitcond.not, label %.preheader, label %.lr.ph72.split.split, !llvm.loop !108

._crit_edge:                                      ; preds = %64
  %58 = icmp sgt i32 %74, 1
  br i1 %58, label %.lr.ph80, label %._crit_edge81

.lr.ph80:                                         ; preds = %._crit_edge
  %59 = add nsw i32 %74, -2
  %60 = getelementptr inbounds nuw i8, ptr %1, i64 16
  %61 = getelementptr inbounds nuw i8, ptr %1, i64 72
  %62 = getelementptr inbounds nuw i8, ptr %0, i64 12
  %63 = zext nneg i32 %59 to i64
  br label %77

64:                                               ; preds = %.lr.ph, %64
  %indvars.iv118 = phi i64 [ 1, %.lr.ph ], [ %indvars.iv.next119, %64 ]
  %65 = load ptr, ptr %50, align 8, !tbaa !93
  %66 = load ptr, ptr %51, align 8, !tbaa !94
  %67 = load i64, ptr %66, align 8, !tbaa !95
  %68 = mul i64 %67, %indvars.iv118
  %69 = getelementptr inbounds nuw i8, ptr %65, i64 %68
  %70 = add nsw i64 %indvars.iv118, -1
  %71 = mul i64 %67, %70
  %72 = getelementptr inbounds nuw i8, ptr %65, i64 %71
  %73 = load i32, ptr %52, align 4, !tbaa !105
  tail call void @_ZN2cv8ximgproc10intrinsics16rf_vert_row_passEPfS2_fi(ptr noundef %69, ptr noundef %72, float noundef %5, i32 noundef %73)
  %indvars.iv.next119 = add nuw nsw i64 %indvars.iv118, 1
  %74 = load i32, ptr %11, align 8, !tbaa !104
  %75 = sext i32 %74 to i64
  %76 = icmp slt i64 %indvars.iv.next119, %75
  br i1 %76, label %64, label %._crit_edge, !llvm.loop !109

._crit_edge81:                                    ; preds = %77, %3, %.preheader, %._crit_edge
  ret void

77:                                               ; preds = %.lr.ph80, %77
  %indvars.iv121 = phi i64 [ %63, %.lr.ph80 ], [ %indvars.iv.next122, %77 ]
  %78 = load ptr, ptr %60, align 8, !tbaa !93
  %79 = load ptr, ptr %61, align 8, !tbaa !94
  %80 = load i64, ptr %79, align 8, !tbaa !95
  %81 = mul i64 %80, %indvars.iv121
  %82 = getelementptr inbounds nuw i8, ptr %78, i64 %81
  %83 = add nuw nsw i64 %indvars.iv121, 1
  %84 = mul i64 %80, %83
  %85 = getelementptr inbounds nuw i8, ptr %78, i64 %84
  %86 = load i32, ptr %62, align 4, !tbaa !105
  tail call void @_ZN2cv8ximgproc10intrinsics16rf_vert_row_passEPfS2_fi(ptr noundef %82, ptr noundef %85, float noundef %5, i32 noundef %86)
  %indvars.iv.next122 = add nsw i64 %indvars.iv121, -1
  %.not126 = icmp eq i64 %indvars.iv121, 0
  br i1 %.not126, label %._crit_edge81, label %77, !llvm.loop !110
}